target datalayout = "e-m:e-p270:32:32-p271:32:32-p272:64:64-i64:64-i128:128-f80:128-n8:16:32:64-S128"
target triple = "x86_64-pc-linux-gnu"

%"class.icu_77::UnicodeString" = type { %"class.icu_77::Replaceable", %"union.icu_77::UnicodeString::StackBufferOrFields" }
%"class.icu_77::Replaceable" = type { %"class.icu_77::UObject" }
%"class.icu_77::UObject" = type { ptr }
%"union.icu_77::UnicodeString::StackBufferOrFields" = type { %struct.anon.0, [32 x i8] }
%struct.anon.0 = type { i16, i32, i32, ptr }
%"class.icu_77::DateIntervalFormat" = type <{ %"class.icu_77::Format", ptr, ptr, ptr, ptr, %"class.icu_77::Locale", %"class.icu_77::UnicodeString", [9 x %"struct.icu_77::DateIntervalFormat::PatternInfo"], ptr, ptr, ptr, i32, [4 x i8] }>
%"class.icu_77::Format" = type { %"class.icu_77::UObject", ptr, ptr }
%"class.icu_77::Locale" = type <{ %"class.icu_77::UObject", [12 x i8], [6 x i8], [4 x i8], [2 x i8], i32, [4 x i8], ptr, [157 x i8], [3 x i8], ptr, i8, [7 x i8] }>
%"struct.icu_77::DateIntervalFormat::PatternInfo" = type <{ %"class.icu_77::UnicodeString", %"class.icu_77::UnicodeString", i8, [7 x i8] }>

; Function Attrs: inlinehint mustprogress nounwind uwtable
define internal noundef signext i8 @_ZL9U_FAILURE10UErrorCode(i32 noundef %0) #2 {
  %2 = alloca i32, align 4
  store i32 %0, ptr %2, align 4, !tbaa !15
  %3 = load i32, ptr %2, align 4, !tbaa !15
  %4 = icmp sgt i32 %3, 0
  %5 = zext i1 %4 to i8
  ret i8 %5
}

; Function Attrs: mustprogress uwtable
define void @_ZN6icu_7718DateIntervalFormat10setContextE15UDisplayContextR10UErrorCode(ptr noundef nonnull align 8 dereferenceable(1596) %0, i32 noundef %1, ptr noundef nonnull align 4 dereferenceable(4) %2) unnamed_addr #1 align 2 {
  %4 = alloca ptr, align 8
  %5 = alloca i32, align 4
  %6 = alloca ptr, align 8
  store ptr %0, ptr %4, align 8, !tbaa !39
  store i32 %1, ptr %5, align 4, !tbaa !124
  store ptr %2, ptr %6, align 8, !tbaa !22
  %7 = load ptr, ptr %4, align 8
  %8 = load ptr, ptr %6, align 8, !tbaa !22
  %9 = load i32, ptr %8, align 4, !tbaa !15
  %10 = call noundef signext i8 @_ZL9U_FAILURE10UErrorCode(i32 noundef %9)
  %11 = icmp ne i8 %10, 0
  br i1 %11, label %12, label %13

12:                                               ; preds = %3
  br label %22

13:                                               ; preds = %3
  %14 = load i32, ptr %5, align 4, !tbaa !124
  %15 = lshr i32 %14, 8
  %16 = icmp eq i32 %15, 1
  br i1 %16, label %17, label %20

17:                                               ; preds = %13
  %18 = load i32, ptr %5, align 4, !tbaa !124
  %19 = getelementptr inbounds nuw %"class.icu_77::DateIntervalFormat", ptr %7, i32 0, i32 11
  store i32 %18, ptr %19, align 8, !tbaa !64
  br label %22

20:                                               ; preds = %13
  %21 = load ptr, ptr %6, align 8, !tbaa !22
  store i32 1, ptr %21, align 4, !tbaa !15
  br label %22

22:                                               ; preds = %12, %20, %17
  ret void
}